target datalayout = "e-m:e-p270:32:32-p271:32:32-p272:64:64-i64:64-i128:128-f80:128-n8:16:32:64-S128"
target triple = "x86_64-pc-linux-gnu"

%struct.RString = type { %struct.RBasic, i64, %union.anon.12 }
%struct.RBasic = type { i64, i64 }
%union.anon.12 = type { %struct.anon.13 }
%struct.anon.13 = type { ptr, %union.anon.14 }
%union.anon.14 = type { i64 }
%struct.anon.15 = type { [1 x i8] }

@.str.4 = private unnamed_addr constant [4 x i8] c".so\00", align 1
@.str.5 = private unnamed_addr constant [3 x i8] c".o\00", align 1
@.str.16 = private unnamed_addr constant [3 x i8] c"./\00", align 1
@.str.17 = private unnamed_addr constant [4 x i8] c".rb\00", align 1

; Function Attrs: inlinehint nounwind sspstrong willreturn memory(read) uwtable
define internal i64 @RB_FL_TEST_RAW(i64 noundef %0, i64 noundef %1) #12 {
  %3 = alloca i64, align 8
  %4 = alloca i64, align 8
  store i64 %0, ptr %3, align 8, !tbaa !12
  store i64 %1, ptr %4, align 8, !tbaa !12
  %5 = load i64, ptr %3, align 8, !tbaa !12
  %6 = inttoptr i64 %5 to ptr
  %7 = getelementptr inbounds nuw %struct.RBasic, ptr %6, i32 0, i32 0
  %8 = load i64, ptr %7, align 8, !tbaa !139
  %9 = load i64, ptr %4, align 8, !tbaa !12
  %10 = and i64 %8, %9
  ret i64 %10
}

; Function Attrs: inlinehint nounwind sspstrong willreturn memory(read) uwtable
define internal i64 @RSTRING_LEN(i64 noundef %0) #12 {
  %2 = alloca i64, align 8
  store i64 %0, ptr %2, align 8, !tbaa !12
  %3 = load i64, ptr %2, align 8, !tbaa !12
  %4 = inttoptr i64 %3 to ptr
  %5 = getelementptr inbounds nuw %struct.RString, ptr %4, i32 0, i32 1
  %6 = load i64, ptr %5, align 8, !tbaa !142
  ret i64 %6
}

; Function Attrs: inlinehint nounwind sspstrong willreturn memory(read) uwtable
define internal zeroext i1 @RB_FL_ANY_RAW(i64 noundef %0, i64 noundef %1) #12 {
  %3 = alloca i64, align 8
  %4 = alloca i64, align 8
  store i64 %0, ptr %3, align 8, !tbaa !12
  store i64 %1, ptr %4, align 8, !tbaa !12
  %5 = load i64, ptr %3, align 8, !tbaa !12
  %6 = load i64, ptr %4, align 8, !tbaa !12
  %7 = call i64 @RB_FL_TEST_RAW(i64 noundef %5, i64 noundef %6) #29
  %8 = icmp ne i64 %7, 0
  ret i1 %8
}

; Function Attrs: inlinehint nounwind sspstrong willreturn memory(read, argmem: readwrite) uwtable
define internal void @rbimpl_rstring_getmem(ptr dead_on_unwind noalias writable sret(%struct.RString) align 8 %0, i64 noundef %1) #14 {
  %3 = alloca i64, align 8
  store i64 %1, ptr %3, align 8, !tbaa !12
  %4 = load i64, ptr %3, align 8, !tbaa !12
  %5 = call zeroext i1 @RB_FL_ANY_RAW(i64 noundef %4, i64 noundef 8192) #29
  br i1 %5, label %6, label %9

6:                                                ; preds = %2
  %7 = load i64, ptr %3, align 8, !tbaa !12
  %8 = inttoptr i64 %7 to ptr
  call void @llvm.memcpy.p0.p0.i64(ptr align 8 %0, ptr align 8 %8, i64 40, i1 false), !tbaa.struct !141
  br label %20

9:                                                ; preds = %2
  %10 = load i64, ptr %3, align 8, !tbaa !12
  %11 = call i64 @RSTRING_LEN(i64 noundef %10) #29
  %12 = getelementptr inbounds nuw %struct.RString, ptr %0, i32 0, i32 1
  store i64 %11, ptr %12, align 8, !tbaa !142
  %13 = load i64, ptr %3, align 8, !tbaa !12
  %14 = inttoptr i64 %13 to ptr
  %15 = getelementptr inbounds nuw %struct.RString, ptr %14, i32 0, i32 2
  %16 = getelementptr inbounds nuw %struct.anon.15, ptr %15, i32 0, i32 0
  %17 = getelementptr inbounds [1 x i8], ptr %16, i64 0, i64 0
  %18 = getelementptr inbounds nuw %struct.RString, ptr %0, i32 0, i32 2
  %19 = getelementptr inbounds nuw %struct.anon.13, ptr %18, i32 0, i32 0
  store ptr %17, ptr %19, align 8, !tbaa !47
  br label %20

20:                                               ; preds = %9, %6
  ret void
}

; Function Attrs: inlinehint nounwind sspstrong uwtable
define internal ptr @RSTRING_PTR(i64 noundef %0) #1 {
  %2 = alloca i64, align 8
  %3 = alloca ptr, align 8
  %4 = alloca %struct.RString, align 8
  store i64 %0, ptr %2, align 8, !tbaa !12
  call void @llvm.lifetime.start.p0(i64 8, ptr %3) #8
  %5 = load i64, ptr %2, align 8, !tbaa !12
  call void @rbimpl_rstring_getmem(ptr dead_on_unwind writable sret(%struct.RString) align 8 %4, i64 noundef %5) #34
  %6 = getelementptr inbounds nuw %struct.RString, ptr %4, i32 0, i32 2
  %7 = getelementptr inbounds nuw %struct.anon.13, ptr %6, i32 0, i32 0
  %8 = load ptr, ptr %7, align 8, !tbaa !47
  store ptr %8, ptr %3, align 8, !tbaa !43
  %9 = load ptr, ptr %3, align 8, !tbaa !43
  call void @llvm.lifetime.end.p0(i64 8, ptr %3) #8
  ret ptr %9
}

; Function Attrs: nounwind sspstrong uwtable
define internal i32 @feature_provided(ptr noundef %0, ptr noundef %1, ptr noundef %2) #0 {
  %4 = alloca i32, align 4
  %5 = alloca ptr, align 8
  %6 = alloca ptr, align 8
  %7 = alloca ptr, align 8
  %8 = alloca ptr, align 8
  %9 = alloca i64, align 8
  %10 = alloca i32, align 4
  %11 = alloca ptr, align 8
  %12 = alloca ptr, align 8
  store ptr %0, ptr %5, align 8, !tbaa !7
  store ptr %1, ptr %6, align 8, !tbaa !43
  store ptr %2, ptr %7, align 8, !tbaa !45
  call void @llvm.lifetime.start.p0(i64 8, ptr %8) #8
  %13 = load ptr, ptr %6, align 8, !tbaa !43
  %14 = call ptr @strrchr(ptr noundef %13, i32 noundef 46) #29
  store ptr %14, ptr %8, align 8, !tbaa !43
  call void @llvm.lifetime.start.p0(i64 8, ptr %9) #8
  store i64 0, ptr %9, align 8, !tbaa !12
  %15 = load ptr, ptr %6, align 8, !tbaa !43
  %16 = load i8, ptr %15, align 1, !tbaa !47
  %17 = sext i8 %16 to i32
  %18 = icmp eq i32 %17, 46
  br i1 %18, label %19, label %37

19:                                               ; preds = %3
  %20 = load ptr, ptr %6, align 8, !tbaa !43
  %21 = getelementptr i8, ptr %20, i64 1
  %22 = load i8, ptr %21, align 1, !tbaa !47
  %23 = sext i8 %22 to i32
  %24 = icmp eq i32 %23, 47
  br i1 %24, label %30, label %25

25:                                               ; preds = %19
  %26 = load ptr, ptr %6, align 8, !tbaa !43
  %27 = getelementptr i8, ptr %26, i64 1
  %28 = call i32 @strncmp(ptr noundef %27, ptr noundef @.str.16, i64 noundef 2) #29
  %29 = icmp eq i32 %28, 0
  br i1 %29, label %30, label %37

30:                                               ; preds = %25, %19
  %31 = load ptr, ptr %6, align 8, !tbaa !43
  %32 = call i64 @rb_str_new_cstr(ptr noundef %31)
  %33 = call i64 @rb_get_path(i64 noundef %32)
  %34 = call i64 @rb_file_expand_path_fast(i64 noundef %33, i64 noundef 4)
  store i64 %34, ptr %9, align 8, !tbaa !12
  %35 = load i64, ptr %9, align 8, !tbaa !12
  %36 = call ptr @RSTRING_PTR(i64 noundef %35)
  store ptr %36, ptr %6, align 8, !tbaa !43
  br label %37

37:                                               ; preds = %30, %25, %3
  %38 = load ptr, ptr %8, align 8, !tbaa !43
  %39 = icmp ne ptr %38, null
  br i1 %39, label %40, label %80

40:                                               ; preds = %37
  %41 = load ptr, ptr %8, align 8, !tbaa !43
  %42 = call ptr @strchr(ptr noundef %41, i32 noundef 47) #29
  %43 = icmp ne ptr %42, null
  br i1 %43, label %80, label %44

44:                                               ; preds = %40
  %45 = load ptr, ptr %8, align 8, !tbaa !43
  %46 = call i32 @strcmp(ptr noundef %45, ptr noundef @.str.17) #29
  %47 = icmp eq i32 %46, 0
  br i1 %47, label %48, label %57

48:                                               ; preds = %44
  %49 = load ptr, ptr %5, align 8, !tbaa !7
  %50 = load ptr, ptr %6, align 8, !tbaa !43
  %51 = load ptr, ptr %8, align 8, !tbaa !43
  %52 = load ptr, ptr %7, align 8, !tbaa !45
  %53 = call i32 @rb_feature_p(ptr noundef %49, ptr noundef %50, ptr noundef %51, i32 noundef 1, i32 noundef 0, ptr noundef %52)
  %54 = icmp ne i32 %53, 0
  br i1 %54, label %55, label %56

55:                                               ; preds = %48
  store i32 1, ptr %4, align 4
  store i32 1, ptr %10, align 4
  br label %91

56:                                               ; preds = %48
  store i32 0, ptr %4, align 4
  store i32 1, ptr %10, align 4
  br label %91

57:                                               ; preds = %44
  %58 = load ptr, ptr %8, align 8, !tbaa !43
  %59 = call i32 @strcmp(ptr noundef %58, ptr noundef @.str.4) #29
  %60 = icmp eq i32 %59, 0
  br i1 %60, label %69, label %61

61:                                               ; preds = %57
  %62 = load ptr, ptr %8, align 8, !tbaa !43
  %63 = call i32 @strcmp(ptr noundef %62, ptr noundef @.str.5) #29
  %64 = icmp eq i32 %63, 0
  br i1 %64, label %69, label %65

65:                                               ; preds = %61
  %66 = load ptr, ptr %8, align 8, !tbaa !43
  %67 = call i32 @strcmp(ptr noundef %66, ptr noundef @.str.4) #29
  %68 = icmp eq i32 %67, 0
  br i1 %68, label %69, label %78

69:                                               ; preds = %65, %61, %57
  %70 = load ptr, ptr %5, align 8, !tbaa !7
  %71 = load ptr, ptr %6, align 8, !tbaa !43
  %72 = load ptr, ptr %8, align 8, !tbaa !43
  %73 = load ptr, ptr %7, align 8, !tbaa !45
  %74 = call i32 @rb_feature_p(ptr noundef %70, ptr noundef %71, ptr noundef %72, i32 noundef 0, i32 noundef 0, ptr noundef %73)
  %75 = icmp ne i32 %74, 0
  br i1 %75, label %76, label %77

76:                                               ; preds = %69
  store i32 1, ptr %4, align 4
  store i32 1, ptr %10, align 4
  br label %91

77:                                               ; preds = %69
  store i32 0, ptr %4, align 4
  store i32 1, ptr %10, align 4
  br label %91

78:                                               ; preds = %65
  br label %79

79:                                               ; preds = %78
  br label %80

80:                                               ; preds = %79, %40, %37
  %81 = load ptr, ptr %5, align 8, !tbaa !7
  %82 = load ptr, ptr %6, align 8, !tbaa !43
  %83 = load ptr, ptr %7, align 8, !tbaa !45
  %84 = call i32 @rb_feature_p(ptr noundef %81, ptr noundef %82, ptr noundef null, i32 noundef 1, i32 noundef 0, ptr noundef %83)
  %85 = icmp ne i32 %84, 0
  br i1 %85, label %86, label %87

86:                                               ; preds = %80
  store i32 1, ptr %4, align 4
  store i32 1, ptr %10, align 4
  br label %91

87:                                               ; preds = %80
  call void @llvm.lifetime.start.p0(i64 8, ptr %11) #8
  store ptr %9, ptr %11, align 8, !tbaa !48
  call void asm sideeffect "", "*m,~{dirflag},~{fpsr},~{flags}"(ptr elementtype(ptr) %11) #8, !srcloc !50
  %88 = load ptr, ptr %11, align 8, !tbaa !48
  store ptr %88, ptr %12, align 8, !tbaa !48
  call void @llvm.lifetime.end.p0(i64 8, ptr %11) #8
  %89 = load ptr, ptr %12, align 8, !tbaa !48
  %90 = load volatile i64, ptr %89, align 8, !tbaa !12
  store i32 0, ptr %4, align 4
  store i32 1, ptr %10, align 4
  br label %91

91:                                               ; preds = %87, %86, %77, %76, %56, %55
  call void @llvm.lifetime.end.p0(i64 8, ptr %9) #8
  call void @llvm.lifetime.end.p0(i64 8, ptr %8) #8
  %92 = load i32, ptr %4, align 4
  ret i32 %92
}