; Function Attrs: nounwind sspstrong uwtable
define internal fastcc range(i32 0, 2) i32 @feature_provided(ptr noundef %0, ptr noundef %1, ptr noundef captures(address_is_null) %2) unnamed_addr #0 {
  %4 = alloca i64, align 8
  %5 = alloca ptr, align 8
  %6 = tail call ptr @strrchr(ptr noundef nonnull dereferenceable(1) %1, i32 noundef 46) #25
  call void @llvm.lifetime.start.p0(i64 8, ptr nonnull %4) #7
  store i64 0, ptr %4, align 8, !tbaa !42
  %7 = load i8, ptr %1, align 1, !tbaa !43
  %8 = icmp eq i8 %7, 46
  br i1 %8, label %9, label %RSTRING_PTR.exit

9:                                                ; preds = %3
  %10 = getelementptr i8, ptr %1, i64 1
  %11 = load i8, ptr %10, align 1, !tbaa !43
  switch i8 %11, label %RSTRING_PTR.exit [
    i8 47, label %15
    i8 46, label %.tail
  ]

.tail:                                            ; preds = %9
  %12 = getelementptr i8, ptr %1, i64 2
  %13 = load i8, ptr %12, align 1
  %14 = icmp eq i8 %13, 47
  br i1 %14, label %15, label %RSTRING_PTR.exit

15:                                               ; preds = %9, %.tail
  %16 = tail call i64 @rb_str_new_cstr(ptr noundef nonnull %1) #7
  %17 = tail call i64 @rb_get_path(i64 noundef %16) #7
  %18 = tail call i64 @rb_file_expand_path_fast(i64 noundef %17, i64 noundef 4) #7
  store i64 %18, ptr %4, align 8, !tbaa !42
  %19 = inttoptr i64 %18 to ptr
  %20 = load i64, ptr %19, align 8, !tbaa !44, !noalias !46
  %21 = and i64 %20, 8192
  %.not.i.i = icmp eq i64 %21, 0
  %22 = getelementptr inbounds nuw i8, ptr %19, i64 24
  br i1 %.not.i.i, label %RSTRING_PTR.exit, label %23

23:                                               ; preds = %15
  %.sroa.2.0.copyload.i = load ptr, ptr %22, align 8
  br label %RSTRING_PTR.exit

RSTRING_PTR.exit:                                 ; preds = %9, %23, %15, %.tail, %3
  %.023 = phi ptr [ %1, %.tail ], [ %1, %3 ], [ %.sroa.2.0.copyload.i, %23 ], [ %22, %15 ], [ %1, %9 ]
  %.not = icmp eq ptr %6, null
  br i1 %.not, label %.tail30.thread, label %24

24:                                               ; preds = %RSTRING_PTR.exit
  %25 = tail call ptr @strchr(ptr noundef nonnull dereferenceable(1) %6, i32 noundef 47) #25
  %.not25 = icmp eq ptr %25, null
  br i1 %.not25, label %26, label %.tail30.thread

26:                                               ; preds = %24
  %27 = tail call i32 @strcmp(ptr noundef nonnull dereferenceable(1) %6, ptr noundef nonnull dereferenceable(4) @.str.17) #25
  %28 = icmp eq i32 %27, 0
  br i1 %28, label %29, label %31

29:                                               ; preds = %26
  %30 = tail call i32 @rb_feature_p(ptr noundef %0, ptr noundef %.023, ptr noundef nonnull %6, i32 noundef 1, i32 noundef 0, ptr noundef %2)
  %.not27 = icmp ne i32 %30, 0
  br label %46

31:                                               ; preds = %26
  %32 = tail call i32 @strcmp(ptr noundef nonnull dereferenceable(1) %6, ptr noundef nonnull dereferenceable(4) @.str.4) #25
  %33 = icmp eq i32 %32, 0
  br i1 %33, label %40, label %sub_031

sub_031:                                          ; preds = %31
  %34 = load i8, ptr %6, align 1
  %.not35 = icmp eq i8 %34, 46
  br i1 %.not35, label %sub_132, label %.tail30.thread

sub_132:                                          ; preds = %sub_031
  %35 = getelementptr inbounds nuw i8, ptr %6, i64 1
  %36 = load i8, ptr %35, align 1
  %.not36 = icmp eq i8 %36, 111
  br i1 %.not36, label %.tail30, label %.tail30.thread

.tail30:                                          ; preds = %sub_132
  %37 = getelementptr inbounds nuw i8, ptr %6, i64 2
  %38 = load i8, ptr %37, align 1
  %39 = icmp eq i8 %38, 0
  br i1 %39, label %40, label %.tail30.thread

40:                                               ; preds = %.tail30, %31
  %41 = tail call i32 @rb_feature_p(ptr noundef %0, ptr noundef %.023, ptr noundef nonnull %6, i32 noundef 0, i32 noundef 0, ptr noundef %2)
  %.not26 = icmp ne i32 %41, 0
  br label %46

.tail30.thread:                                   ; preds = %sub_132, %sub_031, %.tail30, %24, %RSTRING_PTR.exit
  %42 = tail call i32 @rb_feature_p(ptr noundef %0, ptr noundef %.023, ptr noundef null, i32 noundef 1, i32 noundef 0, ptr noundef %2)
  %.not28 = icmp eq i32 %42, 0
  br i1 %.not28, label %43, label %46

43:                                               ; preds = %.tail30.thread
  call void @llvm.lifetime.start.p0(i64 8, ptr nonnull %5) #7
  store ptr %4, ptr %5, align 8, !tbaa !49
  call void asm sideeffect "", "*m,~{dirflag},~{fpsr},~{flags}"(ptr nonnull elementtype(ptr) %5) #7, !srcloc !51
  %44 = load ptr, ptr %5, align 8, !tbaa !49
  call void @llvm.lifetime.end.p0(i64 8, ptr nonnull %5) #7
  %45 = load volatile i64, ptr %44, align 8, !tbaa !42
  br label %46

46:                                               ; preds = %.tail30.thread, %40, %29, %43
  %.0.shrunk = phi i1 [ false, %43 ], [ %.not27, %29 ], [ %.not26, %40 ], [ true, %.tail30.thread ]
  %.0 = zext i1 %.0.shrunk to i32
  call void @llvm.lifetime.end.p0(i64 8, ptr nonnull %4) #7
  ret i32 %.0
}